target datalayout = "e-m:e-p270:32:32-p271:32:32-p272:64:64-i64:64-i128:128-f80:128-n8:16:32:64-S128"
target triple = "x86_64-pc-linux-gnu"

@g_base64 = internal constant [65 x i8] c"ABCDEFGHIJKLMNOPQRSTUVWXYZabcdefghijklmnopqrstuvwxyz0123456789+/\00", align 16

; Function Attrs: nounwind uwtable
define i32 @b64_ntop(ptr noundef %0, i64 noundef %1, ptr noundef %2, i64 noundef %3) #0 {
  %5 = alloca i32, align 4
  %6 = alloca ptr, align 8
  %7 = alloca i64, align 8
  %8 = alloca ptr, align 8
  %9 = alloca i64, align 8
  %10 = alloca i64, align 8
  store ptr %0, ptr %6, align 8
  store i64 %1, ptr %7, align 8
  store ptr %2, ptr %8, align 8
  store i64 %3, ptr %9, align 8
  store i64 0, ptr %10, align 8
  br label %11

11:                                               ; preds = %20, %4
  %12 = load i64, ptr %7, align 8
  %13 = icmp uge i64 %12, 3
  br i1 %13, label %14, label %79

14:                                               ; preds = %11
  %15 = load i64, ptr %10, align 8
  %16 = add i64 %15, 4
  store i64 %16, ptr %10, align 8
  %17 = load i64, ptr %9, align 8
  %18 = icmp uge i64 %16, %17
  br i1 %18, label %19, label %20

19:                                               ; preds = %14
  store i32 -1, ptr %5, align 4
  br label %151

20:                                               ; preds = %14
  %21 = load ptr, ptr %6, align 8
  %22 = getelementptr inbounds i8, ptr %21, i64 0
  %23 = load i8, ptr %22, align 1
  %24 = zext i8 %23 to i32
  %25 = ashr i32 %24, 2
  %26 = sext i32 %25 to i64
  %27 = getelementptr inbounds [65 x i8], ptr @g_base64, i64 0, i64 %26
  %28 = load i8, ptr %27, align 1
  %29 = load ptr, ptr %8, align 8
  %30 = getelementptr inbounds i8, ptr %29, i32 1
  store ptr %30, ptr %8, align 8
  store i8 %28, ptr %29, align 1
  %31 = load ptr, ptr %6, align 8
  %32 = getelementptr inbounds i8, ptr %31, i64 0
  %33 = load i8, ptr %32, align 1
  %34 = zext i8 %33 to i32
  %35 = and i32 %34, 3
  %36 = shl i32 %35, 4
  %37 = load ptr, ptr %6, align 8
  %38 = getelementptr inbounds i8, ptr %37, i64 1
  %39 = load i8, ptr %38, align 1
  %40 = zext i8 %39 to i32
  %41 = ashr i32 %40, 4
  %42 = add nsw i32 %36, %41
  %43 = sext i32 %42 to i64
  %44 = getelementptr inbounds [65 x i8], ptr @g_base64, i64 0, i64 %43
  %45 = load i8, ptr %44, align 1
  %46 = load ptr, ptr %8, align 8
  %47 = getelementptr inbounds i8, ptr %46, i32 1
  store ptr %47, ptr %8, align 8
  store i8 %45, ptr %46, align 1
  %48 = load ptr, ptr %6, align 8
  %49 = getelementptr inbounds i8, ptr %48, i64 1
  %50 = load i8, ptr %49, align 1
  %51 = zext i8 %50 to i32
  %52 = and i32 %51, 15
  %53 = shl i32 %52, 2
  %54 = load ptr, ptr %6, align 8
  %55 = getelementptr inbounds i8, ptr %54, i64 2
  %56 = load i8, ptr %55, align 1
  %57 = zext i8 %56 to i32
  %58 = ashr i32 %57, 6
  %59 = add nsw i32 %53, %58
  %60 = sext i32 %59 to i64
  %61 = getelementptr inbounds [65 x i8], ptr @g_base64, i64 0, i64 %60
  %62 = load i8, ptr %61, align 1
  %63 = load ptr, ptr %8, align 8
  %64 = getelementptr inbounds i8, ptr %63, i32 1
  store ptr %64, ptr %8, align 8
  store i8 %62, ptr %63, align 1
  %65 = load ptr, ptr %6, align 8
  %66 = getelementptr inbounds i8, ptr %65, i64 2
  %67 = load i8, ptr %66, align 1
  %68 = zext i8 %67 to i32
  %69 = and i32 %68, 63
  %70 = sext i32 %69 to i64
  %71 = getelementptr inbounds [65 x i8], ptr @g_base64, i64 0, i64 %70
  %72 = load i8, ptr %71, align 1
  %73 = load ptr, ptr %8, align 8
  %74 = getelementptr inbounds i8, ptr %73, i32 1
  store ptr %74, ptr %8, align 8
  store i8 %72, ptr %73, align 1
  %75 = load ptr, ptr %6, align 8
  %76 = getelementptr inbounds i8, ptr %75, i64 3
  store ptr %76, ptr %6, align 8
  %77 = load i64, ptr %7, align 8
  %78 = sub i64 %77, 3
  store i64 %78, ptr %7, align 8
  br label %11, !llvm.loop !6

79:                                               ; preds = %11
  %80 = load i64, ptr %7, align 8
  %81 = icmp ne i64 %80, 0
  br i1 %81, label %82, label %147

82:                                               ; preds = %79
  %83 = load i64, ptr %10, align 8
  %84 = add i64 %83, 4
  store i64 %84, ptr %10, align 8
  %85 = load i64, ptr %9, align 8
  %86 = icmp uge i64 %84, %85
  br i1 %86, label %87, label %88

87:                                               ; preds = %82
  store i32 -1, ptr %5, align 4
  br label %151

88:                                               ; preds = %82
  %89 = load ptr, ptr %6, align 8
  %90 = getelementptr inbounds i8, ptr %89, i64 0
  %91 = load i8, ptr %90, align 1
  %92 = zext i8 %91 to i32
  %93 = ashr i32 %92, 2
  %94 = sext i32 %93 to i64
  %95 = getelementptr inbounds [65 x i8], ptr @g_base64, i64 0, i64 %94
  %96 = load i8, ptr %95, align 1
  %97 = load ptr, ptr %8, align 8
  %98 = getelementptr inbounds i8, ptr %97, i32 1
  store ptr %98, ptr %8, align 8
  store i8 %96, ptr %97, align 1
  %99 = load i64, ptr %7, align 8
  %100 = icmp eq i64 %99, 1
  br i1 %100, label %101, label %115

101:                                              ; preds = %88
  %102 = load ptr, ptr %6, align 8
  %103 = getelementptr inbounds i8, ptr %102, i64 0
  %104 = load i8, ptr %103, align 1
  %105 = zext i8 %104 to i32
  %106 = and i32 %105, 3
  %107 = shl i32 %106, 4
  %108 = sext i32 %107 to i64
  %109 = getelementptr inbounds [65 x i8], ptr @g_base64, i64 0, i64 %108
  %110 = load i8, ptr %109, align 1
  %111 = load ptr, ptr %8, align 8
  %112 = getelementptr inbounds i8, ptr %111, i32 1
  store ptr %112, ptr %8, align 8
  store i8 %110, ptr %111, align 1
  %113 = load ptr, ptr %8, align 8
  %114 = getelementptr inbounds i8, ptr %113, i32 1
  store ptr %114, ptr %8, align 8
  store i8 61, ptr %113, align 1
  br label %144

115:                                              ; preds = %88
  %116 = load ptr, ptr %6, align 8
  %117 = getelementptr inbounds i8, ptr %116, i64 0
  %118 = load i8, ptr %117, align 1
  %119 = zext i8 %118 to i32
  %120 = and i32 %119, 3
  %121 = shl i32 %120, 4
  %122 = load ptr, ptr %6, align 8
  %123 = getelementptr inbounds i8, ptr %122, i64 1
  %124 = load i8, ptr %123, align 1
  %125 = zext i8 %124 to i32
  %126 = ashr i32 %125, 4
  %127 = add nsw i32 %121, %126
  %128 = sext i32 %127 to i64
  %129 = getelementptr inbounds [65 x i8], ptr @g_base64, i64 0, i64 %128
  %130 = load i8, ptr %129, align 1
  %131 = load ptr, ptr %8, align 8
  %132 = getelementptr inbounds i8, ptr %131, i32 1
  store ptr %132, ptr %8, align 8
  store i8 %130, ptr %131, align 1
  %133 = load ptr, ptr %6, align 8
  %134 = getelementptr inbounds i8, ptr %133, i64 1
  %135 = load i8, ptr %134, align 1
  %136 = zext i8 %135 to i32
  %137 = and i32 %136, 15
  %138 = shl i32 %137, 2
  %139 = sext i32 %138 to i64
  %140 = getelementptr inbounds [65 x i8], ptr @g_base64, i64 0, i64 %139
  %141 = load i8, ptr %140, align 1
  %142 = load ptr, ptr %8, align 8
  %143 = getelementptr inbounds i8, ptr %142, i32 1
  store ptr %143, ptr %8, align 8
  store i8 %141, ptr %142, align 1
  br label %144

144:                                              ; preds = %115, %101
  %145 = load ptr, ptr %8, align 8
  %146 = getelementptr inbounds i8, ptr %145, i32 1
  store ptr %146, ptr %8, align 8
  store i8 61, ptr %145, align 1
  br label %147

147:                                              ; preds = %144, %79
  %148 = load ptr, ptr %8, align 8
  store i8 0, ptr %148, align 1
  %149 = load i64, ptr %10, align 8
  %150 = trunc i64 %149 to i32
  store i32 %150, ptr %5, align 4
  br label %151

151:                                              ; preds = %147, %87, %19
  %152 = load i32, ptr %5, align 4
  ret i32 %152
}