; Function Attrs: nofree norecurse nosync nounwind memory(argmem: readwrite) uwtable
define i32 @b64_ntop(ptr noundef readonly captures(none) %0, i64 noundef %1, ptr noundef writeonly captures(none) %2, i64 noundef %3) local_unnamed_addr #0 {
  %5 = icmp ugt i64 %1, 2
  br i1 %5, label %.lr.ph, label %._crit_edge

.lr.ph:                                           ; preds = %4, %7
  %.048 = phi i64 [ %6, %7 ], [ 0, %4 ]
  %.03347 = phi ptr [ %41, %7 ], [ %2, %4 ]
  %.03546 = phi i64 [ %43, %7 ], [ %1, %4 ]
  %.03645 = phi ptr [ %42, %7 ], [ %0, %4 ]
  %6 = add i64 %.048, 4
  %.not40 = icmp ult i64 %6, %3
  br i1 %.not40, label %7, label %.loopexit

7:                                                ; preds = %.lr.ph
  %8 = load i8, ptr %.03645, align 1
  %9 = lshr i8 %8, 2
  %10 = zext nneg i8 %9 to i64
  %11 = getelementptr inbounds nuw [65 x i8], ptr @g_base64, i64 0, i64 %10
  %12 = load i8, ptr %11, align 1
  %13 = getelementptr inbounds nuw i8, ptr %.03347, i64 1
  store i8 %12, ptr %.03347, align 1
  %14 = load i8, ptr %.03645, align 1
  %15 = shl i8 %14, 4
  %16 = and i8 %15, 48
  %17 = getelementptr inbounds nuw i8, ptr %.03645, i64 1
  %18 = load i8, ptr %17, align 1
  %19 = lshr i8 %18, 4
  %20 = or disjoint i8 %16, %19
  %21 = zext nneg i8 %20 to i64
  %22 = getelementptr inbounds nuw [65 x i8], ptr @g_base64, i64 0, i64 %21
  %23 = load i8, ptr %22, align 1
  %24 = getelementptr inbounds nuw i8, ptr %.03347, i64 2
  store i8 %23, ptr %13, align 1
  %25 = load i8, ptr %17, align 1
  %26 = shl i8 %25, 2
  %27 = and i8 %26, 60
  %28 = getelementptr inbounds nuw i8, ptr %.03645, i64 2
  %29 = load i8, ptr %28, align 1
  %30 = lshr i8 %29, 6
  %31 = or disjoint i8 %27, %30
  %32 = zext nneg i8 %31 to i64
  %33 = getelementptr inbounds nuw [65 x i8], ptr @g_base64, i64 0, i64 %32
  %34 = load i8, ptr %33, align 1
  %35 = getelementptr inbounds nuw i8, ptr %.03347, i64 3
  store i8 %34, ptr %24, align 1
  %36 = load i8, ptr %28, align 1
  %37 = and i8 %36, 63
  %38 = zext nneg i8 %37 to i64
  %39 = getelementptr inbounds nuw [65 x i8], ptr @g_base64, i64 0, i64 %38
  %40 = load i8, ptr %39, align 1
  %41 = getelementptr inbounds nuw i8, ptr %.03347, i64 4
  store i8 %40, ptr %35, align 1
  %42 = getelementptr inbounds nuw i8, ptr %.03645, i64 3
  %43 = add i64 %.03546, -3
  %44 = icmp ugt i64 %43, 2
  br i1 %44, label %.lr.ph, label %._crit_edge, !llvm.loop !6

._crit_edge:                                      ; preds = %7, %4
  %.036.lcssa = phi ptr [ %0, %4 ], [ %42, %7 ]
  %.035.lcssa = phi i64 [ %1, %4 ], [ %43, %7 ]
  %.033.lcssa = phi ptr [ %2, %4 ], [ %41, %7 ]
  %.0.lcssa = phi i64 [ 0, %4 ], [ %6, %7 ]
  %.not = icmp eq i64 %.035.lcssa, 0
  br i1 %.not, label %79, label %45

45:                                               ; preds = %._crit_edge
  %46 = add i64 %.0.lcssa, 4
  %.not39 = icmp ult i64 %46, %3
  br i1 %.not39, label %47, label %.loopexit

47:                                               ; preds = %45
  %48 = load i8, ptr %.036.lcssa, align 1
  %49 = lshr i8 %48, 2
  %50 = zext nneg i8 %49 to i64
  %51 = getelementptr inbounds nuw [65 x i8], ptr @g_base64, i64 0, i64 %50
  %52 = load i8, ptr %51, align 1
  %53 = getelementptr inbounds nuw i8, ptr %.033.lcssa, i64 1
  store i8 %52, ptr %.033.lcssa, align 1
  %54 = icmp eq i64 %.035.lcssa, 1
  %55 = load i8, ptr %.036.lcssa, align 1
  %56 = shl i8 %55, 4
  %57 = and i8 %56, 48
  br i1 %54, label %58, label %62

58:                                               ; preds = %47
  %59 = zext nneg i8 %57 to i64
  %60 = getelementptr inbounds nuw [65 x i8], ptr @g_base64, i64 0, i64 %59
  %61 = load i8, ptr %60, align 16
  store i8 %61, ptr %53, align 1
  br label %76

62:                                               ; preds = %47
  %63 = getelementptr inbounds nuw i8, ptr %.036.lcssa, i64 1
  %64 = load i8, ptr %63, align 1
  %65 = lshr i8 %64, 4
  %66 = or disjoint i8 %57, %65
  %67 = zext nneg i8 %66 to i64
  %68 = getelementptr inbounds nuw [65 x i8], ptr @g_base64, i64 0, i64 %67
  %69 = load i8, ptr %68, align 1
  store i8 %69, ptr %53, align 1
  %70 = load i8, ptr %63, align 1
  %71 = shl i8 %70, 2
  %72 = and i8 %71, 60
  %73 = zext nneg i8 %72 to i64
  %74 = getelementptr inbounds nuw [65 x i8], ptr @g_base64, i64 0, i64 %73
  %75 = load i8, ptr %74, align 4
  br label %76

76:                                               ; preds = %62, %58
  %.sink = phi i8 [ 61, %58 ], [ %75, %62 ]
  %77 = getelementptr inbounds nuw i8, ptr %.033.lcssa, i64 2
  store i8 %.sink, ptr %77, align 1
  %.2 = getelementptr inbounds nuw i8, ptr %.033.lcssa, i64 3
  %78 = getelementptr inbounds nuw i8, ptr %.033.lcssa, i64 4
  store i8 61, ptr %.2, align 1
  br label %79

79:                                               ; preds = %76, %._crit_edge
  %.134 = phi ptr [ %78, %76 ], [ %.033.lcssa, %._crit_edge ]
  %.1 = phi i64 [ %46, %76 ], [ %.0.lcssa, %._crit_edge ]
  store i8 0, ptr %.134, align 1
  %80 = trunc i64 %.1 to i32
  br label %.loopexit

.loopexit:                                        ; preds = %.lr.ph, %45, %79
  %.032 = phi i32 [ %80, %79 ], [ -1, %45 ], [ -1, %.lr.ph ]
  ret i32 %.032
}